target datalayout = "e-m:e-p270:32:32-p271:32:32-p272:64:64-i64:64-i128:128-f80:128-n8:16:32:64-S128"
target triple = "x86_64-pc-linux-gnu"

%struct.X509_algor_st = type { ptr, ptr }
%struct.PBKDF2PARAM_st = type { ptr, ptr, ptr, ptr }
%struct.asn1_type_st = type { i32, %union.anon }
%union.anon = type { ptr }
%struct.asn1_string_st = type { i32, i32, ptr, i64 }

@PBKDF2PARAM_it.local_it = internal constant { i8, [7 x i8], i64, ptr, i64, ptr, i64, ptr } { i8 1, [7 x i8] zeroinitializer, i64 16, ptr @PBKDF2PARAM_seq_tt, i64 4, ptr null, i64 32, ptr @.str.1 }, align 8
@.str.3 = private unnamed_addr constant [34 x i8] c"../openssl/crypto/asn1/p5_pbev2.c\00", align 1
@__func__.PKCS5_pbkdf2_set_ex = private unnamed_addr constant [20 x i8] c"PKCS5_pbkdf2_set_ex\00", align 1

; Function Attrs: nounwind uwtable
define void @PBKDF2PARAM_free(ptr noundef %0) #0 {
  %2 = alloca ptr, align 8
  store ptr %0, ptr %2, align 8, !tbaa !16
  %3 = load ptr, ptr %2, align 8, !tbaa !16
  %4 = call ptr @PBKDF2PARAM_it()
  call void @ASN1_item_free(ptr noundef %3, ptr noundef %4)
  ret void
}

; Function Attrs: nounwind uwtable
define ptr @PBKDF2PARAM_it() #0 {
  ret ptr @PBKDF2PARAM_it.local_it
}

; Function Attrs: nounwind uwtable
define ptr @PBKDF2PARAM_new() #0 {
  %1 = call ptr @PBKDF2PARAM_it()
  %2 = call ptr @ASN1_item_new(ptr noundef %1)
  ret ptr %2
}

; Function Attrs: nounwind uwtable
define ptr @PKCS5_pbkdf2_set_ex(i32 noundef %0, ptr noundef %1, i32 noundef %2, i32 noundef %3, i32 noundef %4, ptr noundef %5) #0 {
  %7 = alloca ptr, align 8
  %8 = alloca i32, align 4
  %9 = alloca ptr, align 8
  %10 = alloca i32, align 4
  %11 = alloca i32, align 4
  %12 = alloca i32, align 4
  %13 = alloca ptr, align 8
  %14 = alloca ptr, align 8
  %15 = alloca ptr, align 8
  %16 = alloca ptr, align 8
  %17 = alloca i32, align 4
  store i32 %0, ptr %8, align 4, !tbaa !21
  store ptr %1, ptr %9, align 8, !tbaa !23
  store i32 %2, ptr %10, align 4, !tbaa !21
  store i32 %3, ptr %11, align 4, !tbaa !21
  store i32 %4, ptr %12, align 4, !tbaa !21
  store ptr %5, ptr %13, align 8, !tbaa !25
  call void @llvm.lifetime.start.p0(i64 8, ptr %14) #4
  store ptr null, ptr %14, align 8, !tbaa !27
  call void @llvm.lifetime.start.p0(i64 8, ptr %15) #4
  store ptr null, ptr %15, align 8, !tbaa !16
  call void @llvm.lifetime.start.p0(i64 8, ptr %16) #4
  store ptr null, ptr %16, align 8, !tbaa !39
  %18 = call ptr @PBKDF2PARAM_new()
  store ptr %18, ptr %15, align 8, !tbaa !16
  %19 = icmp eq ptr %18, null
  br i1 %19, label %20, label %21

20:                                               ; preds = %6
  call void @ERR_new()
  call void @ERR_set_debug(ptr noundef @.str.3, i32 noundef 191, ptr noundef @__func__.PKCS5_pbkdf2_set_ex)
  call void (i32, i32, ptr, ...) @ERR_set_error(i32 noundef 13, i32 noundef 524301, ptr noundef null)
  br label %142

21:                                               ; preds = %6
  %22 = call ptr @ASN1_OCTET_STRING_new()
  store ptr %22, ptr %16, align 8, !tbaa !39
  %23 = icmp eq ptr %22, null
  br i1 %23, label %24, label %25

24:                                               ; preds = %21
  call void @ERR_new()
  call void @ERR_set_debug(ptr noundef @.str.3, i32 noundef 195, ptr noundef @__func__.PKCS5_pbkdf2_set_ex)
  call void (i32, i32, ptr, ...) @ERR_set_error(i32 noundef 13, i32 noundef 524301, ptr noundef null)
  br label %142

25:                                               ; preds = %21
  %26 = load ptr, ptr %16, align 8, !tbaa !39
  %27 = load ptr, ptr %15, align 8, !tbaa !16
  %28 = getelementptr inbounds nuw %struct.PBKDF2PARAM_st, ptr %27, i32 0, i32 0
  %29 = load ptr, ptr %28, align 8, !tbaa !41
  %30 = getelementptr inbounds nuw %struct.asn1_type_st, ptr %29, i32 0, i32 1
  store ptr %26, ptr %30, align 8, !tbaa !43
  %31 = load ptr, ptr %15, align 8, !tbaa !16
  %32 = getelementptr inbounds nuw %struct.PBKDF2PARAM_st, ptr %31, i32 0, i32 0
  %33 = load ptr, ptr %32, align 8, !tbaa !41
  %34 = getelementptr inbounds nuw %struct.asn1_type_st, ptr %33, i32 0, i32 0
  store i32 4, ptr %34, align 8, !tbaa !44
  %35 = load i32, ptr %10, align 4, !tbaa !21
  %36 = icmp slt i32 %35, 0
  br i1 %36, label %37, label %38

37:                                               ; preds = %25
  call void @ERR_new()
  call void @ERR_set_debug(ptr noundef @.str.3, i32 noundef 203, ptr noundef @__func__.PKCS5_pbkdf2_set_ex)
  call void (i32, i32, ptr, ...) @ERR_set_error(i32 noundef 13, i32 noundef 524550, ptr noundef null)
  br label %142

38:                                               ; preds = %25
  %39 = load i32, ptr %10, align 4, !tbaa !21
  %40 = icmp eq i32 %39, 0
  br i1 %40, label %41, label %42

41:                                               ; preds = %38
  store i32 16, ptr %10, align 4, !tbaa !21
  br label %42

42:                                               ; preds = %41, %38
  %43 = load i32, ptr %10, align 4, !tbaa !21
  %44 = sext i32 %43 to i64
  %45 = call noalias ptr @CRYPTO_malloc(i64 noundef %44, ptr noundef @.str.3, i32 noundef 208)
  %46 = load ptr, ptr %16, align 8, !tbaa !39
  %47 = getelementptr inbounds nuw %struct.asn1_string_st, ptr %46, i32 0, i32 2
  store ptr %45, ptr %47, align 8, !tbaa !46
  %48 = icmp eq ptr %45, null
  br i1 %48, label %49, label %50

49:                                               ; preds = %42
  br label %142

50:                                               ; preds = %42
  %51 = load i32, ptr %10, align 4, !tbaa !21
  %52 = load ptr, ptr %16, align 8, !tbaa !39
  %53 = getelementptr inbounds nuw %struct.asn1_string_st, ptr %52, i32 0, i32 0
  store i32 %51, ptr %53, align 8, !tbaa !48
  %54 = load ptr, ptr %9, align 8, !tbaa !23
  %55 = icmp ne ptr %54, null
  br i1 %55, label %56, label %63

56:                                               ; preds = %50
  %57 = load ptr, ptr %16, align 8, !tbaa !39
  %58 = getelementptr inbounds nuw %struct.asn1_string_st, ptr %57, i32 0, i32 2
  %59 = load ptr, ptr %58, align 8, !tbaa !46
  %60 = load ptr, ptr %9, align 8, !tbaa !23
  %61 = load i32, ptr %10, align 4, !tbaa !21
  %62 = sext i32 %61 to i64
  call void @llvm.memcpy.p0.p0.i64(ptr align 1 %59, ptr align 1 %60, i64 %62, i1 false)
  br label %74

63:                                               ; preds = %50
  %64 = load ptr, ptr %13, align 8, !tbaa !25
  %65 = load ptr, ptr %16, align 8, !tbaa !39
  %66 = getelementptr inbounds nuw %struct.asn1_string_st, ptr %65, i32 0, i32 2
  %67 = load ptr, ptr %66, align 8, !tbaa !46
  %68 = load i32, ptr %10, align 4, !tbaa !21
  %69 = sext i32 %68 to i64
  %70 = call i32 @RAND_bytes_ex(ptr noundef %64, ptr noundef %67, i64 noundef %69, i32 noundef 0)
  %71 = icmp sle i32 %70, 0
  br i1 %71, label %72, label %73

72:                                               ; preds = %63
  call void @ERR_new()
  call void @ERR_set_debug(ptr noundef @.str.3, i32 noundef 217, ptr noundef @__func__.PKCS5_pbkdf2_set_ex)
  call void (i32, i32, ptr, ...) @ERR_set_error(i32 noundef 13, i32 noundef 524324, ptr noundef null)
  br label %142

73:                                               ; preds = %63
  br label %74

74:                                               ; preds = %73, %56
  %75 = load i32, ptr %8, align 4, !tbaa !21
  %76 = icmp sle i32 %75, 0
  br i1 %76, label %77, label %78

77:                                               ; preds = %74
  store i32 2048, ptr %8, align 4, !tbaa !21
  br label %78

78:                                               ; preds = %77, %74
  %79 = load ptr, ptr %15, align 8, !tbaa !16
  %80 = getelementptr inbounds nuw %struct.PBKDF2PARAM_st, ptr %79, i32 0, i32 1
  %81 = load ptr, ptr %80, align 8, !tbaa !49
  %82 = load i32, ptr %8, align 4, !tbaa !21
  %83 = sext i32 %82 to i64
  %84 = call i32 @ASN1_INTEGER_set(ptr noundef %81, i64 noundef %83)
  %85 = icmp ne i32 %84, 0
  br i1 %85, label %87, label %86

86:                                               ; preds = %78
  call void @ERR_new()
  call void @ERR_set_debug(ptr noundef @.str.3, i32 noundef 225, ptr noundef @__func__.PKCS5_pbkdf2_set_ex)
  call void (i32, i32, ptr, ...) @ERR_set_error(i32 noundef 13, i32 noundef 524301, ptr noundef null)
  br label %142

87:                                               ; preds = %78
  %88 = load i32, ptr %12, align 4, !tbaa !21
  %89 = icmp sgt i32 %88, 0
  br i1 %89, label %90, label %106

90:                                               ; preds = %87
  %91 = call ptr @ASN1_INTEGER_new()
  %92 = load ptr, ptr %15, align 8, !tbaa !16
  %93 = getelementptr inbounds nuw %struct.PBKDF2PARAM_st, ptr %92, i32 0, i32 2
  store ptr %91, ptr %93, align 8, !tbaa !50
  %94 = icmp eq ptr %91, null
  br i1 %94, label %95, label %96

95:                                               ; preds = %90
  call void @ERR_new()
  call void @ERR_set_debug(ptr noundef @.str.3, i32 noundef 233, ptr noundef @__func__.PKCS5_pbkdf2_set_ex)
  call void (i32, i32, ptr, ...) @ERR_set_error(i32 noundef 13, i32 noundef 524301, ptr noundef null)
  br label %142

96:                                               ; preds = %90
  %97 = load ptr, ptr %15, align 8, !tbaa !16
  %98 = getelementptr inbounds nuw %struct.PBKDF2PARAM_st, ptr %97, i32 0, i32 2
  %99 = load ptr, ptr %98, align 8, !tbaa !50
  %100 = load i32, ptr %12, align 4, !tbaa !21
  %101 = sext i32 %100 to i64
  %102 = call i32 @ASN1_INTEGER_set(ptr noundef %99, i64 noundef %101)
  %103 = icmp ne i32 %102, 0
  br i1 %103, label %105, label %104

104:                                              ; preds = %96
  call void @ERR_new()
  call void @ERR_set_debug(ptr noundef @.str.3, i32 noundef 237, ptr noundef @__func__.PKCS5_pbkdf2_set_ex)
  call void (i32, i32, ptr, ...) @ERR_set_error(i32 noundef 13, i32 noundef 524301, ptr noundef null)
  br label %142

105:                                              ; preds = %96
  br label %106

106:                                              ; preds = %105, %87
  %107 = load i32, ptr %11, align 4, !tbaa !21
  %108 = icmp sgt i32 %107, 0
  br i1 %108, label %109, label %123

109:                                              ; preds = %106
  %110 = load i32, ptr %11, align 4, !tbaa !21
  %111 = icmp ne i32 %110, 163
  br i1 %111, label %112, label %123

112:                                              ; preds = %109
  %113 = load i32, ptr %11, align 4, !tbaa !21
  %114 = call ptr @ossl_X509_ALGOR_from_nid(i32 noundef %113, i32 noundef 5, ptr noundef null)
  %115 = load ptr, ptr %15, align 8, !tbaa !16
  %116 = getelementptr inbounds nuw %struct.PBKDF2PARAM_st, ptr %115, i32 0, i32 3
  store ptr %114, ptr %116, align 8, !tbaa !51
  %117 = load ptr, ptr %15, align 8, !tbaa !16
  %118 = getelementptr inbounds nuw %struct.PBKDF2PARAM_st, ptr %117, i32 0, i32 3
  %119 = load ptr, ptr %118, align 8, !tbaa !51
  %120 = icmp eq ptr %119, null
  br i1 %120, label %121, label %122

121:                                              ; preds = %112
  call void @ERR_new()
  call void @ERR_set_debug(ptr noundef @.str.3, i32 noundef 246, ptr noundef @__func__.PKCS5_pbkdf2_set_ex)
  call void (i32, i32, ptr, ...) @ERR_set_error(i32 noundef 13, i32 noundef 524299, ptr noundef null)
  br label %142

122:                                              ; preds = %112
  br label %123

123:                                              ; preds = %122, %109, %106
  %124 = call ptr @X509_ALGOR_new()
  store ptr %124, ptr %14, align 8, !tbaa !27
  %125 = load ptr, ptr %14, align 8, !tbaa !27
  %126 = icmp eq ptr %125, null
  br i1 %126, label %127, label %128

127:                                              ; preds = %123
  call void @ERR_new()
  call void @ERR_set_debug(ptr noundef @.str.3, i32 noundef 255, ptr noundef @__func__.PKCS5_pbkdf2_set_ex)
  call void (i32, i32, ptr, ...) @ERR_set_error(i32 noundef 13, i32 noundef 524299, ptr noundef null)
  br label %142

128:                                              ; preds = %123
  %129 = call ptr @OBJ_nid2obj(i32 noundef 69)
  %130 = load ptr, ptr %14, align 8, !tbaa !27
  %131 = getelementptr inbounds nuw %struct.X509_algor_st, ptr %130, i32 0, i32 0
  store ptr %129, ptr %131, align 8, !tbaa !33
  %132 = call ptr @PBKDF2PARAM_it()
  %133 = load ptr, ptr %15, align 8, !tbaa !16
  %134 = load ptr, ptr %14, align 8, !tbaa !27
  %135 = getelementptr inbounds nuw %struct.X509_algor_st, ptr %134, i32 0, i32 1
  %136 = call ptr @ASN1_TYPE_pack_sequence(ptr noundef %132, ptr noundef %133, ptr noundef %135)
  %137 = icmp ne ptr %136, null
  br i1 %137, label %139, label %138

138:                                              ; preds = %128
  call void @ERR_new()
  call void @ERR_set_debug(ptr noundef @.str.3, i32 noundef 265, ptr noundef @__func__.PKCS5_pbkdf2_set_ex)
  call void (i32, i32, ptr, ...) @ERR_set_error(i32 noundef 13, i32 noundef 524301, ptr noundef null)
  br label %142

139:                                              ; preds = %128
  %140 = load ptr, ptr %15, align 8, !tbaa !16
  call void @PBKDF2PARAM_free(ptr noundef %140)
  %141 = load ptr, ptr %14, align 8, !tbaa !27
  store ptr %141, ptr %7, align 8
  store i32 1, ptr %17, align 4
  br label %145

142:                                              ; preds = %138, %127, %121, %104, %95, %86, %72, %49, %37, %24, %20
  %143 = load ptr, ptr %15, align 8, !tbaa !16
  call void @PBKDF2PARAM_free(ptr noundef %143)
  %144 = load ptr, ptr %14, align 8, !tbaa !27
  call void @X509_ALGOR_free(ptr noundef %144)
  store ptr null, ptr %7, align 8
  store i32 1, ptr %17, align 4
  br label %145

145:                                              ; preds = %142, %139
  call void @llvm.lifetime.end.p0(i64 8, ptr %16) #4
  call void @llvm.lifetime.end.p0(i64 8, ptr %15) #4
  call void @llvm.lifetime.end.p0(i64 8, ptr %14) #4
  %146 = load ptr, ptr %7, align 8
  ret ptr %146
}