; Function Attrs: nounwind uwtable
define ptr @PKCS5_pbkdf2_set_ex(i32 noundef %0, ptr noundef readonly captures(address_is_null) %1, i32 noundef %2, i32 noundef %3, i32 noundef %4, ptr noundef %5) local_unnamed_addr #1 {
  %7 = tail call ptr @ASN1_item_new(ptr noundef nonnull @PBKDF2PARAM_it.local_it) #5
  %8 = icmp eq ptr %7, null
  br i1 %8, label %.sink.split, label %9

9:                                                ; preds = %6
  %10 = tail call ptr @ASN1_OCTET_STRING_new() #5
  %11 = icmp eq ptr %10, null
  br i1 %11, label %.sink.split, label %12

12:                                               ; preds = %9
  %13 = load ptr, ptr %7, align 8, !tbaa !17
  %14 = getelementptr inbounds nuw i8, ptr %13, i64 8
  store ptr %10, ptr %14, align 8, !tbaa !20
  %15 = load ptr, ptr %7, align 8, !tbaa !17
  store i32 4, ptr %15, align 8, !tbaa !21
  %16 = icmp slt i32 %2, 0
  br i1 %16, label %.sink.split, label %17

17:                                               ; preds = %12
  %18 = icmp eq i32 %2, 0
  %spec.store.select = select i1 %18, i32 16, i32 %2
  %19 = zext nneg i32 %spec.store.select to i64
  %20 = tail call noalias ptr @CRYPTO_malloc(i64 noundef %19, ptr noundef nonnull @.str.3, i32 noundef 208) #5
  %21 = getelementptr inbounds nuw i8, ptr %10, i64 8
  store ptr %20, ptr %21, align 8, !tbaa !23
  %22 = icmp eq ptr %20, null
  br i1 %22, label %58, label %23

23:                                               ; preds = %17
  store i32 %spec.store.select, ptr %10, align 8, !tbaa !27
  %.not = icmp eq ptr %1, null
  br i1 %.not, label %25, label %24

24:                                               ; preds = %23
  tail call void @llvm.memcpy.p0.p0.i64(ptr noundef nonnull align 1 dereferenceable(1) %20, ptr noundef nonnull align 1 dereferenceable(1) %1, i64 %19, i1 false)
  br label %28

25:                                               ; preds = %23
  %26 = tail call i32 @RAND_bytes_ex(ptr noundef %5, ptr noundef nonnull %20, i64 noundef %19, i32 noundef 0) #5
  %27 = icmp slt i32 %26, 1
  br i1 %27, label %.sink.split, label %28

28:                                               ; preds = %25, %24
  %29 = icmp slt i32 %0, 1
  %spec.store.select1 = select i1 %29, i32 2048, i32 %0
  %30 = getelementptr inbounds nuw i8, ptr %7, i64 8
  %31 = load ptr, ptr %30, align 8, !tbaa !28
  %32 = zext nneg i32 %spec.store.select1 to i64
  %33 = tail call i32 @ASN1_INTEGER_set(ptr noundef %31, i64 noundef %32) #5
  %.not47 = icmp eq i32 %33, 0
  br i1 %.not47, label %.sink.split, label %34

34:                                               ; preds = %28
  %35 = icmp sgt i32 %4, 0
  br i1 %35, label %36, label %43

36:                                               ; preds = %34
  %37 = tail call ptr @ASN1_INTEGER_new() #5
  %38 = getelementptr inbounds nuw i8, ptr %7, i64 16
  store ptr %37, ptr %38, align 8, !tbaa !29
  %39 = icmp eq ptr %37, null
  br i1 %39, label %.sink.split, label %40

40:                                               ; preds = %36
  %41 = zext nneg i32 %4 to i64
  %42 = tail call i32 @ASN1_INTEGER_set(ptr noundef nonnull %37, i64 noundef %41) #5
  %.not48 = icmp eq i32 %42, 0
  br i1 %.not48, label %.sink.split, label %43

43:                                               ; preds = %40, %34
  %44 = icmp sgt i32 %3, 0
  %45 = icmp ne i32 %3, 163
  %or.cond = and i1 %44, %45
  br i1 %or.cond, label %46, label %50

46:                                               ; preds = %43
  %47 = tail call ptr @ossl_X509_ALGOR_from_nid(i32 noundef %3, i32 noundef 5, ptr noundef null) #5
  %48 = getelementptr inbounds nuw i8, ptr %7, i64 24
  store ptr %47, ptr %48, align 8, !tbaa !30
  %49 = icmp eq ptr %47, null
  br i1 %49, label %.sink.split, label %50

50:                                               ; preds = %46, %43
  %51 = tail call ptr @X509_ALGOR_new() #5
  %52 = icmp eq ptr %51, null
  br i1 %52, label %.sink.split, label %53

53:                                               ; preds = %50
  %54 = tail call ptr @OBJ_nid2obj(i32 noundef 69) #5
  store ptr %54, ptr %51, align 8, !tbaa !11
  %55 = getelementptr inbounds nuw i8, ptr %51, i64 8
  %56 = tail call ptr @ASN1_TYPE_pack_sequence(ptr noundef nonnull @PBKDF2PARAM_it.local_it, ptr noundef nonnull %7, ptr noundef nonnull %55) #5
  %.not49 = icmp eq ptr %56, null
  br i1 %.not49, label %.sink.split, label %57

57:                                               ; preds = %53
  tail call void @ASN1_item_free(ptr noundef nonnull %7, ptr noundef nonnull @PBKDF2PARAM_it.local_it) #5
  br label %59

.sink.split:                                      ; preds = %53, %50, %46, %40, %36, %28, %25, %12, %9, %6
  %.sink50 = phi i32 [ 191, %6 ], [ 195, %9 ], [ 203, %12 ], [ 217, %25 ], [ 225, %28 ], [ 233, %36 ], [ 237, %40 ], [ 246, %46 ], [ 255, %50 ], [ 265, %53 ]
  %.sink = phi i32 [ 524301, %6 ], [ 524301, %9 ], [ 524550, %12 ], [ 524324, %25 ], [ 524301, %28 ], [ 524301, %36 ], [ 524301, %40 ], [ 524299, %46 ], [ 524299, %50 ], [ 524301, %53 ]
  %.0.ph = phi ptr [ null, %6 ], [ null, %9 ], [ null, %12 ], [ null, %25 ], [ null, %28 ], [ null, %36 ], [ null, %40 ], [ null, %46 ], [ null, %50 ], [ %51, %53 ]
  tail call void @ERR_new() #5
  tail call void @ERR_set_debug(ptr noundef nonnull @.str.3, i32 noundef %.sink50, ptr noundef nonnull @__func__.PKCS5_pbkdf2_set_ex) #5
  tail call void (i32, i32, ptr, ...) @ERR_set_error(i32 noundef 13, i32 noundef %.sink, ptr noundef null) #5
  br label %58

58:                                               ; preds = %.sink.split, %17
  %.0 = phi ptr [ null, %17 ], [ %.0.ph, %.sink.split ]
  tail call void @ASN1_item_free(ptr noundef %7, ptr noundef nonnull @PBKDF2PARAM_it.local_it) #5
  tail call void @X509_ALGOR_free(ptr noundef %.0) #5
  br label %59

59:                                               ; preds = %58, %57
  %.038 = phi ptr [ null, %58 ], [ %51, %57 ]
  ret ptr %.038
}